; Function Attrs: nounwind uwtable
define ptr @Cgt_ManDupPartition_rec(ptr noundef %0, ptr noundef %1, ptr noundef %2, ptr noundef %3) local_unnamed_addr #0 {
  %5 = getelementptr i8, ptr %1, i64 312
  %.val = load i32, ptr %5, align 8, !tbaa !3
  %6 = getelementptr i8, ptr %2, i64 32
  %.val25 = load i32, ptr %6, align 8, !tbaa !21
  %.not = icmp eq i32 %.val25, %.val
  br i1 %.not, label %7, label %10

7:                                                ; preds = %4
  %8 = getelementptr inbounds nuw i8, ptr %2, i64 40
  %9 = load ptr, ptr %8, align 8, !tbaa !51
  br label %83

10:                                               ; preds = %4
  store i32 %.val, ptr %6, align 8, !tbaa !21
  %11 = getelementptr i8, ptr %2, i64 24
  %.val29 = load i64, ptr %11, align 8
  %12 = and i64 %.val29, 7
  %.not33 = icmp eq i64 %12, 2
  br i1 %.not33, label %13, label %48

13:                                               ; preds = %10
  %14 = tail call ptr @Aig_ObjCreateCi(ptr noundef %0) #13
  %15 = getelementptr inbounds nuw i8, ptr %2, i64 40
  store ptr %14, ptr %15, align 8, !tbaa !51
  %16 = getelementptr inbounds nuw i8, ptr %3, i64 4
  %17 = load i32, ptr %16, align 4, !tbaa !28
  %18 = load i32, ptr %3, align 8, !tbaa !30
  %19 = icmp eq i32 %17, %18
  br i1 %19, label %20, label %.Vec_PtrGrow.exit11_crit_edge.i

.Vec_PtrGrow.exit11_crit_edge.i:                  ; preds = %13
  %.phi.trans.insert.i = getelementptr inbounds nuw i8, ptr %3, i64 8
  %.pre.i = load ptr, ptr %.phi.trans.insert.i, align 8, !tbaa !31
  br label %Vec_PtrPush.exit

20:                                               ; preds = %13
  %21 = icmp slt i32 %17, 16
  br i1 %21, label %22, label %30

22:                                               ; preds = %20
  %23 = getelementptr inbounds nuw i8, ptr %3, i64 8
  %24 = load ptr, ptr %23, align 8, !tbaa !31
  %.not9.i.i = icmp eq ptr %24, null
  br i1 %.not9.i.i, label %27, label %25

25:                                               ; preds = %22
  %26 = tail call dereferenceable_or_null(128) ptr @realloc(ptr noundef nonnull %24, i64 noundef 128) #11
  br label %Vec_PtrGrow.exit.i

27:                                               ; preds = %22
  %28 = tail call noalias dereferenceable_or_null(128) ptr @malloc(i64 noundef 128) #12
  br label %Vec_PtrGrow.exit.i

Vec_PtrGrow.exit.i:                               ; preds = %27, %25
  %29 = phi ptr [ %26, %25 ], [ %28, %27 ]
  store ptr %29, ptr %23, align 8, !tbaa !31
  store i32 16, ptr %3, align 8, !tbaa !30
  br label %Vec_PtrPush.exit

30:                                               ; preds = %20
  %31 = shl nuw nsw i32 %17, 1
  %32 = getelementptr inbounds nuw i8, ptr %3, i64 8
  %33 = load ptr, ptr %32, align 8, !tbaa !31
  %.not9.i10.i = icmp eq ptr %33, null
  %34 = zext nneg i32 %31 to i64
  %35 = shl nuw nsw i64 %34, 3
  br i1 %.not9.i10.i, label %38, label %36

36:                                               ; preds = %30
  %37 = tail call ptr @realloc(ptr noundef nonnull %33, i64 noundef %35) #11
  br label %40

38:                                               ; preds = %30
  %39 = tail call noalias ptr @malloc(i64 noundef %35) #12
  br label %40

40:                                               ; preds = %38, %36
  %41 = phi ptr [ %37, %36 ], [ %39, %38 ]
  store ptr %41, ptr %32, align 8, !tbaa !31
  store i32 %31, ptr %3, align 8, !tbaa !30
  br label %Vec_PtrPush.exit

Vec_PtrPush.exit:                                 ; preds = %.Vec_PtrGrow.exit11_crit_edge.i, %Vec_PtrGrow.exit.i, %40
  %42 = phi ptr [ %.pre.i, %.Vec_PtrGrow.exit11_crit_edge.i ], [ %41, %40 ], [ %29, %Vec_PtrGrow.exit.i ]
  %43 = load i32, ptr %16, align 4, !tbaa !28
  %44 = add nsw i32 %43, 1
  store i32 %44, ptr %16, align 4, !tbaa !28
  %45 = sext i32 %43 to i64
  %46 = getelementptr inbounds ptr, ptr %42, i64 %45
  store ptr %2, ptr %46, align 8, !tbaa !32
  %47 = load ptr, ptr %15, align 8, !tbaa !51
  br label %83

48:                                               ; preds = %10
  %49 = getelementptr i8, ptr %2, i64 8
  %.val27 = load ptr, ptr %49, align 8, !tbaa !22
  %50 = ptrtoint ptr %.val27 to i64
  %51 = and i64 %50, -2
  %52 = inttoptr i64 %51 to ptr
  %53 = tail call ptr @Cgt_ManDupPartition_rec(ptr noundef %0, ptr noundef nonnull %1, ptr noundef %52, ptr noundef %3)
  %54 = getelementptr i8, ptr %2, i64 16
  %.val28 = load ptr, ptr %54, align 8, !tbaa !23
  %55 = ptrtoint ptr %.val28 to i64
  %56 = and i64 %55, -2
  %57 = inttoptr i64 %56 to ptr
  %58 = tail call ptr @Cgt_ManDupPartition_rec(ptr noundef %0, ptr noundef nonnull %1, ptr noundef %57, ptr noundef %3)
  %.val30 = load ptr, ptr %49, align 8, !tbaa !22
  %59 = ptrtoint ptr %.val30 to i64
  %60 = and i64 %59, -2
  %.not.i = icmp eq i64 %60, 0
  br i1 %.not.i, label %Aig_ObjChild0Copy.exit, label %61

61:                                               ; preds = %48
  %62 = inttoptr i64 %60 to ptr
  %63 = getelementptr inbounds nuw i8, ptr %62, i64 40
  %64 = load ptr, ptr %63, align 8, !tbaa !51
  %65 = and i64 %59, 1
  %66 = ptrtoint ptr %64 to i64
  %67 = xor i64 %65, %66
  %68 = inttoptr i64 %67 to ptr
  br label %Aig_ObjChild0Copy.exit

Aig_ObjChild0Copy.exit:                           ; preds = %48, %61
  %69 = phi ptr [ %68, %61 ], [ null, %48 ]
  %.val31 = load ptr, ptr %54, align 8, !tbaa !23
  %70 = ptrtoint ptr %.val31 to i64
  %71 = and i64 %70, -2
  %.not.i32 = icmp eq i64 %71, 0
  br i1 %.not.i32, label %Aig_ObjChild1Copy.exit, label %72

72:                                               ; preds = %Aig_ObjChild0Copy.exit
  %73 = inttoptr i64 %71 to ptr
  %74 = getelementptr inbounds nuw i8, ptr %73, i64 40
  %75 = load ptr, ptr %74, align 8, !tbaa !51
  %76 = and i64 %70, 1
  %77 = ptrtoint ptr %75 to i64
  %78 = xor i64 %76, %77
  %79 = inttoptr i64 %78 to ptr
  br label %Aig_ObjChild1Copy.exit

Aig_ObjChild1Copy.exit:                           ; preds = %Aig_ObjChild0Copy.exit, %72
  %80 = phi ptr [ %79, %72 ], [ null, %Aig_ObjChild0Copy.exit ]
  %81 = tail call ptr @Aig_And(ptr noundef %0, ptr noundef %69, ptr noundef %80) #13
  %82 = getelementptr inbounds nuw i8, ptr %2, i64 40
  store ptr %81, ptr %82, align 8, !tbaa !51
  br label %83

83:                                               ; preds = %Aig_ObjChild1Copy.exit, %Vec_PtrPush.exit, %7
  %.0 = phi ptr [ %9, %7 ], [ %47, %Vec_PtrPush.exit ], [ %81, %Aig_ObjChild1Copy.exit ]
  ret ptr %.0
}